target datalayout = "e-m:e-p270:32:32-p271:32:32-p272:64:64-i64:64-i128:128-f80:128-n8:16:32:64-S128"
target triple = "x86_64-unknown-linux-gnu"

%"class.icu_75::UnicodeString" = type { %"class.icu_75::Replaceable", %"union.icu_75::UnicodeString::StackBufferOrFields" }
%"class.icu_75::Replaceable" = type { %"class.icu_75::UObject" }
%"class.icu_75::UObject" = type { ptr }
%"union.icu_75::UnicodeString::StackBufferOrFields" = type { %struct.anon.0, [32 x i8] }
%struct.anon.0 = type { i16, i32, i32, ptr }
%"class.icu_75::TransliteratorIDParser::SingleID" = type { [8 x i8], %"class.icu_75::UnicodeString", %"class.icu_75::UnicodeString", %"class.icu_75::UnicodeString" }

; Function Attrs: mustprogress nounwind uwtable
define linkonce_odr void @_ZN6icu_7522TransliteratorIDParser8SingleIDD2Ev(ptr noundef nonnull align 8 dereferenceable(200) %this) unnamed_addr #0 comdat align 2 {
entry:
  %this.addr = alloca ptr, align 8
  store ptr %this, ptr %this.addr, align 8
  %this1 = load ptr, ptr %this.addr, align 8
  %filter = getelementptr inbounds %"class.icu_75::TransliteratorIDParser::SingleID", ptr %this1, i32 0, i32 3
  call void @_ZN6icu_7513UnicodeStringD1Ev(ptr noundef nonnull align 8 dereferenceable(64) %filter) #8
  %basicID = getelementptr inbounds %"class.icu_75::TransliteratorIDParser::SingleID", ptr %this1, i32 0, i32 2
  call void @_ZN6icu_7513UnicodeStringD1Ev(ptr noundef nonnull align 8 dereferenceable(64) %basicID) #8
  %canonID = getelementptr inbounds %"class.icu_75::TransliteratorIDParser::SingleID", ptr %this1, i32 0, i32 1
  call void @_ZN6icu_7513UnicodeStringD1Ev(ptr noundef nonnull align 8 dereferenceable(64) %canonID) #8
  ret void
}

; Function Attrs: mustprogress nounwind uwtable
define internal void @_ZN6icu_75L15_deleteSingleIDEPv(ptr noundef %obj) #0 {
entry:
  %obj.addr = alloca ptr, align 8
  store ptr %obj, ptr %obj.addr, align 8
  %0 = load ptr, ptr %obj.addr, align 8
  %isnull = icmp eq ptr %0, null
  br i1 %isnull, label %delete.end, label %delete.notnull

delete.notnull:                                   ; preds = %entry
  call void @_ZN6icu_7522TransliteratorIDParser8SingleIDD2Ev(ptr noundef nonnull align 8 dereferenceable(200) %0) #8
  call void @_ZN6icu_757UMemorydlEPv(ptr noundef %0) #8
  br label %delete.end

delete.end:                                       ; preds = %delete.notnull, %entry
  ret void
}