; Function Attrs: mustprogress nounwind uwtable
define internal void @_ZN6icu_75L15_deleteSingleIDEPv(ptr noundef %obj) #0 {
entry:
  %isnull = icmp eq ptr %obj, null
  br i1 %isnull, label %delete.end, label %delete.notnull

delete.notnull:                                   ; preds = %entry
  %filter.i = getelementptr inbounds i8, ptr %obj, i64 136
  tail call void @_ZN6icu_7513UnicodeStringD1Ev(ptr noundef nonnull align 8 dereferenceable(64) %filter.i) #9
  %basicID.i = getelementptr inbounds i8, ptr %obj, i64 72
  tail call void @_ZN6icu_7513UnicodeStringD1Ev(ptr noundef nonnull align 8 dereferenceable(64) %basicID.i) #9
  %canonID.i = getelementptr inbounds i8, ptr %obj, i64 8
  tail call void @_ZN6icu_7513UnicodeStringD1Ev(ptr noundef nonnull align 8 dereferenceable(64) %canonID.i) #9
  tail call void @_ZN6icu_757UMemorydlEPv(ptr noundef nonnull %obj) #9
  br label %delete.end

delete.end:                                       ; preds = %delete.notnull, %entry
  ret void
}